---
triple:          'arm64-apple-darwin'
binary-path:     '/Applications/GitHub/final-dsa-project/Trie'
relocations:
  - { offsetInCU: 0x3F, offset: 0x3F, size: 0x8, addend: 0x0, symName: _n, symObjAddr: 0x2F660, symBinAddr: 0x10000C000, symSize: 0x0 }
  - { offsetInCU: 0x5B, offset: 0x5B, size: 0x8, addend: 0x0, symName: _trie, symObjAddr: 0x2F668, symBinAddr: 0x10000C008, symSize: 0x0 }
  - { offsetInCU: 0x51F5, offset: 0x51F5, size: 0x8, addend: 0x0, symName: __ZNSt3__124__put_character_sequenceB8ue170006IcNS_11char_traitsIcEEEERNS_13basic_ostreamIT_T0_EES7_PKS4_m, symObjAddr: 0x3524, symBinAddr: 0x1000070C4, symSize: 0x1EC }
  - { offsetInCU: 0x6A7F, offset: 0x6A7F, size: 0x8, addend: 0x0, symName: __ZNSt3__1neB8ue170006IPcEEbRKNS_11__wrap_iterIT_EES6_, symObjAddr: 0x30C, symBinAddr: 0x100003EAC, symSize: 0x34 }
  - { offsetInCU: 0x6AC2, offset: 0x6AC2, size: 0x8, addend: 0x0, symName: __ZNSt3__17getlineB8ue170006IcNS_11char_traitsIcEENS_9allocatorIcEEEERNS_13basic_istreamIT_T0_EES9_RNS_12basic_stringIS6_S7_T1_EE, symObjAddr: 0x998, symBinAddr: 0x100004538, symSize: 0x5C }
  - { offsetInCU: 0x6B1A, offset: 0x6B1A, size: 0x8, addend: 0x0, symName: __ZNSt3__1lsB8ue170006INS_11char_traitsIcEEEERNS_13basic_ostreamIcT_EES6_PKc, symObjAddr: 0x9F4, symBinAddr: 0x100004594, symSize: 0x48 }
  - { offsetInCU: 0x6B60, offset: 0x6B60, size: 0x8, addend: 0x0, symName: __ZNSt3__1lsB8ue170006IcNS_11char_traitsIcEENS_9allocatorIcEEEERNS_13basic_ostreamIT_T0_EES9_RKNS_12basic_stringIS6_S7_T1_EE, symObjAddr: 0xA3C, symBinAddr: 0x1000045DC, symSize: 0x4C }
  - { offsetInCU: 0x6BB8, offset: 0x6BB8, size: 0x8, addend: 0x0, symName: __ZNSt3__1eqB8ue170006IPcEEbRKNS_11__wrap_iterIT_EES6_, symObjAddr: 0xB74, symBinAddr: 0x100004714, symSize: 0x48 }
  - { offsetInCU: 0x6BFB, offset: 0x6BFB, size: 0x8, addend: 0x0, symName: __ZNSt3__112__to_addressB8ue170006I4NodeEEPT_S3_, symObjAddr: 0x12D4, symBinAddr: 0x100004E74, symSize: 0x14 }
  - { offsetInCU: 0x6C30, offset: 0x6C30, size: 0x8, addend: 0x0, symName: __ZNSt3__119__libcpp_deallocateB8ue170006EPvmm, symObjAddr: 0x1388, symBinAddr: 0x100004F28, symSize: 0x30 }
  - { offsetInCU: 0x6C78, offset: 0x6C78, size: 0x8, addend: 0x0, symName: __ZNSt3__127__do_deallocate_handle_sizeB8ue170006IJEEEvPvmDpT_, symObjAddr: 0x13B8, symBinAddr: 0x100004F58, symSize: 0x28 }
  - { offsetInCU: 0x6CB6, offset: 0x6CB6, size: 0x8, addend: 0x0, symName: __ZNSt3__124__libcpp_operator_deleteB8ue170006IJPvEEEvDpT_, symObjAddr: 0x13E0, symBinAddr: 0x100004F80, symSize: 0x24 }
  - { offsetInCU: 0x6D1E, offset: 0x6D1E, size: 0x8, addend: 0x0, symName: __ZNSt3__13maxB8ue170006ImEERKT_S3_S3_, symObjAddr: 0x1CAC, symBinAddr: 0x10000584C, symSize: 0x2C }
  - { offsetInCU: 0x6D61, offset: 0x6D61, size: 0x8, addend: 0x0, symName: __ZNSt3__13minB8ue170006ImEERKT_S3_S3_, symObjAddr: 0x1CD8, symBinAddr: 0x100005878, symSize: 0x2C }
  - { offsetInCU: 0x6FA5, offset: 0x6FA5, size: 0x8, addend: 0x0, symName: __ZNSt3__13minB8ue170006ImNS_6__lessIvvEEEERKT_S5_S5_T0_, symObjAddr: 0x1D64, symBinAddr: 0x100005904, symSize: 0x54 }
  - { offsetInCU: 0x7044, offset: 0x7044, size: 0x8, addend: 0x0, symName: __ZNSt3__120__throw_length_errorB8ue170006EPKc, symObjAddr: 0x1E4C, symBinAddr: 0x1000059EC, symSize: 0x64 }
  - { offsetInCU: 0x706E, offset: 0x706E, size: 0x8, addend: 0x0, symName: __ZNSt3__13maxB8ue170006ImNS_6__lessIvvEEEERKT_S5_S5_T0_, symObjAddr: 0x1F30, symBinAddr: 0x100005AD0, symSize: 0x54 }
  - { offsetInCU: 0x70C8, offset: 0x70C8, size: 0x8, addend: 0x0, symName: __ZNSt3__119__allocate_at_leastB8ue170006INS_9allocatorI4NodeEEEENS_19__allocation_resultINS_16allocator_traitsIT_E7pointerEEERS6_m, symObjAddr: 0x20A0, symBinAddr: 0x100005C40, symSize: 0x40 }
  - { offsetInCU: 0x710B, offset: 0x710B, size: 0x8, addend: 0x0, symName: __ZNSt3__117__libcpp_allocateB8ue170006Emm, symObjAddr: 0x2228, symBinAddr: 0x100005DC8, symSize: 0x28 }
  - { offsetInCU: 0x7148, offset: 0x7148, size: 0x8, addend: 0x0, symName: __ZNSt3__121__libcpp_operator_newB8ue170006IJmEEEPvDpT_, symObjAddr: 0x2250, symBinAddr: 0x100005DF0, symSize: 0x24 }
  - { offsetInCU: 0x7181, offset: 0x7181, size: 0x8, addend: 0x0, symName: __ZNSt3__142__uninitialized_allocator_move_if_noexceptB8ue170006INS_9allocatorI4NodeEENS_16reverse_iteratorIPS2_EES6_S2_vEET1_RT_T0_SA_S7_, symObjAddr: 0x22D8, symBinAddr: 0x100005E78, symSize: 0x78 }
  - { offsetInCU: 0x71FE, offset: 0x71FE, size: 0x8, addend: 0x0, symName: __ZNSt3__14swapB8ue170006IP4NodeEENS_9enable_ifIXaasr21is_move_constructibleIT_EE5valuesr18is_move_assignableIS4_EE5valueEvE4typeERS4_S7_, symObjAddr: 0x239C, symBinAddr: 0x100005F3C, symSize: 0x3C }
  - { offsetInCU: 0x724F, offset: 0x724F, size: 0x8, addend: 0x0, symName: __ZNSt3__14moveB8ue170006INS_16reverse_iteratorIP4NodeEES4_EET0_T_S6_S5_, symObjAddr: 0x24A0, symBinAddr: 0x100006040, symSize: 0x78 }
  - { offsetInCU: 0x72A9, offset: 0x72A9, size: 0x8, addend: 0x0, symName: __ZNSt3__16__moveB8ue170006INS_17_ClassicAlgPolicyENS_16reverse_iteratorIP4NodeEES5_S5_EENS_4pairIT0_T2_EES7_T1_S8_, symObjAddr: 0x2518, symBinAddr: 0x1000060B8, symSize: 0x64 }
  - { offsetInCU: 0x7315, offset: 0x7315, size: 0x8, addend: 0x0, symName: __ZNSt3__123__dispatch_copy_or_moveB8ue170006INS_17_ClassicAlgPolicyENS_11__move_loopIS1_EENS_14__move_trivialENS_16reverse_iteratorIP4NodeEES8_S8_EENS_4pairIT2_T4_EESA_T3_SB_, symObjAddr: 0x257C, symBinAddr: 0x10000611C, symSize: 0x64 }
  - { offsetInCU: 0x7393, offset: 0x7393, size: 0x8, addend: 0x0, symName: __ZNSt3__121__unwrap_and_dispatchB8ue170006INS_10__overloadINS_11__move_loopINS_17_ClassicAlgPolicyEEENS_14__move_trivialEEENS_16reverse_iteratorIP4NodeEESA_SA_Li0EEENS_4pairIT0_T2_EESC_T1_SD_, symObjAddr: 0x25E0, symBinAddr: 0x100006180, symSize: 0x12C }
  - { offsetInCU: 0x7423, offset: 0x7423, size: 0x8, addend: 0x0, symName: __ZNSt3__114__unwrap_rangeB8ue170006INS_16reverse_iteratorIP4NodeEES4_EENS_4pairIT0_S6_EET_S8_, symObjAddr: 0x270C, symBinAddr: 0x1000062AC, symSize: 0x84 }
  - { offsetInCU: 0x759E, offset: 0x759E, size: 0x8, addend: 0x0, symName: __ZNSt3__113__unwrap_iterB8ue170006INS_16reverse_iteratorIP4NodeEENS_18__unwrap_iter_implIS4_Lb0EEELi0EEEDTclsrT0_8__unwrapclsr3stdE7declvalIT_EEEES8_, symObjAddr: 0x282C, symBinAddr: 0x1000063CC, symSize: 0x44 }
  - { offsetInCU: 0x75E2, offset: 0x75E2, size: 0x8, addend: 0x0, symName: __ZNSt3__19make_pairB8ue170006INS_16reverse_iteratorIP4NodeEES4_EENS_4pairINS_18__unwrap_ref_decayIT_E4typeENS6_IT0_E4typeEEEOS7_OSA_, symObjAddr: 0x2870, symBinAddr: 0x100006410, symSize: 0x38 }
  - { offsetInCU: 0x7631, offset: 0x7631, size: 0x8, addend: 0x0, symName: __ZNSt3__114__rewrap_rangeB8ue170006INS_16reverse_iteratorIP4NodeEES4_EET_S5_T0_, symObjAddr: 0x28A8, symBinAddr: 0x100006448, symSize: 0x5C }
  - { offsetInCU: 0x767D, offset: 0x767D, size: 0x8, addend: 0x0, symName: __ZNSt3__113__rewrap_iterB8ue170006INS_16reverse_iteratorIP4NodeEES4_NS_18__unwrap_iter_implIS4_Lb0EEEEET_S7_T0_, symObjAddr: 0x2904, symBinAddr: 0x1000064A4, symSize: 0x74 }
  - { offsetInCU: 0x76D2, offset: 0x76D2, size: 0x8, addend: 0x0, symName: __ZNSt3__1neB8ue170006IP4NodeS2_EEbRKNS_16reverse_iteratorIT_EERKNS3_IT0_EE, symObjAddr: 0x2978, symBinAddr: 0x100006518, symSize: 0x48 }
  - { offsetInCU: 0x77D0, offset: 0x77D0, size: 0x8, addend: 0x0, symName: __ZNSt3__17getlineB8ue170006IcNS_11char_traitsIcEENS_9allocatorIcEEEERNS_13basic_istreamIT_T0_EES9_RNS_12basic_stringIS6_S7_T1_EES6_, symObjAddr: 0x2D08, symBinAddr: 0x1000068A8, symSize: 0x238 }
  - { offsetInCU: 0x8026, offset: 0x8026, size: 0x8, addend: 0x0, symName: __ZNSt3__19use_facetB8ue170006INS_5ctypeIcEEEERKT_RKNS_6localeE, symObjAddr: 0x34C0, symBinAddr: 0x100007060, symSize: 0x2C }
  - { offsetInCU: 0x84F3, offset: 0x84F3, size: 0x8, addend: 0x0, symName: __ZNSt3__116__pad_and_outputB8ue170006IcNS_11char_traitsIcEEEENS_19ostreambuf_iteratorIT_T0_EES6_PKS4_S8_S8_RNS_8ios_baseES4_, symObjAddr: 0x3754, symBinAddr: 0x1000072F4, symSize: 0x240 }
  - { offsetInCU: 0x85C2, offset: 0x85C2, size: 0x8, addend: 0x0, symName: __ZNSt3__112__to_addressB8ue170006IKcEEPT_S3_, symObjAddr: 0x3BC4, symBinAddr: 0x100007764, symSize: 0x14 }
  - { offsetInCU: 0x862A, offset: 0x862A, size: 0x8, addend: 0x0, symName: __ZNSt3__118__constexpr_strlenB8ue170006EPKc, symObjAddr: 0x3CC4, symBinAddr: 0x100007864, symSize: 0x24 }
  - { offsetInCU: 0x88EB, offset: 0x88EB, size: 0x8, addend: 0x0, symName: __ZSt28__throw_bad_array_new_lengthB8ue170006v, symObjAddr: 0x21F4, symBinAddr: 0x100005D94, symSize: 0x34 }
  - { offsetInCU: 0x8E06, offset: 0x8E06, size: 0x8, addend: 0x0, symName: __ZNSt3__16vectorI4NodeNS_9allocatorIS1_EEE26__swap_out_circular_bufferERNS_14__split_bufferIS1_RS3_EE, symObjAddr: 0x1AF4, symBinAddr: 0x100005694, symSize: 0x110 }
  - { offsetInCU: 0xB3CF, offset: 0xB3CF, size: 0x8, addend: 0x0, symName: __ZNSt3__16vectorI4NodeNS_9allocatorIS1_EEEC1B8ue170006Ev, symObjAddr: 0x0, symBinAddr: 0x100003BA0, symSize: 0x2C }
  - { offsetInCU: 0xB3F8, offset: 0xB3F8, size: 0x8, addend: 0x0, symName: __ZNSt3__16vectorI4NodeNS_9allocatorIS1_EEED1B8ue170006Ev, symObjAddr: 0x2C, symBinAddr: 0x100003BCC, symSize: 0x2C }
  - { offsetInCU: 0xB420, offset: 0xB420, size: 0x8, addend: 0x0, symName: __Z10convertingc, symObjAddr: 0x58, symBinAddr: 0x100003BF8, symSize: 0xDC }
  - { offsetInCU: 0xB44D, offset: 0xB44D, size: 0x8, addend: 0x0, symName: __Z3addNSt3__112basic_stringIcNS_11char_traitsIcEENS_9allocatorIcEEEE, symObjAddr: 0x134, symBinAddr: 0x100003CD4, symSize: 0x138 }
  - { offsetInCU: 0xB4F5, offset: 0xB4F5, size: 0x8, addend: 0x0, symName: __ZNSt3__112basic_stringIcNS_11char_traitsIcEENS_9allocatorIcEEE5beginB8ue170006Ev, symObjAddr: 0x26C, symBinAddr: 0x100003E0C, symSize: 0x4C }
  - { offsetInCU: 0xB51A, offset: 0xB51A, size: 0x8, addend: 0x0, symName: __ZNSt3__112basic_stringIcNS_11char_traitsIcEENS_9allocatorIcEEE3endB8ue170006Ev, symObjAddr: 0x2B8, symBinAddr: 0x100003E58, symSize: 0x54 }
  - { offsetInCU: 0xB53F, offset: 0xB53F, size: 0x8, addend: 0x0, symName: __ZNKSt3__111__wrap_iterIPcEdeB8ue170006Ev, symObjAddr: 0x340, symBinAddr: 0x100003EE0, symSize: 0x18 }
  - { offsetInCU: 0xB564, offset: 0xB564, size: 0x8, addend: 0x0, symName: __ZNSt3__16vectorI4NodeNS_9allocatorIS1_EEEixB8ue170006Em, symObjAddr: 0x358, symBinAddr: 0x100003EF8, symSize: 0x2C }
  - { offsetInCU: 0xB59A, offset: 0xB59A, size: 0x8, addend: 0x0, symName: __ZNKSt3__16vectorI4NodeNS_9allocatorIS1_EEE4sizeB8ue170006Ev, symObjAddr: 0x384, symBinAddr: 0x100003F24, symSize: 0x28 }
  - { offsetInCU: 0xB5BE, offset: 0xB5BE, size: 0x8, addend: 0x0, symName: __ZNSt3__16vectorI4NodeNS_9allocatorIS1_EEE9push_backB8ue170006EOS1_, symObjAddr: 0x3AC, symBinAddr: 0x100003F4C, symSize: 0x6C }
  - { offsetInCU: 0xB5F4, offset: 0xB5F4, size: 0x8, addend: 0x0, symName: __ZN4NodeC1Ev, symObjAddr: 0x418, symBinAddr: 0x100003FB8, symSize: 0x2C }
  - { offsetInCU: 0xB61D, offset: 0xB61D, size: 0x8, addend: 0x0, symName: __ZNSt3__111__wrap_iterIPcEppB8ue170006Ev, symObjAddr: 0x444, symBinAddr: 0x100003FE4, symSize: 0x20 }
  - { offsetInCU: 0xB641, offset: 0xB641, size: 0x8, addend: 0x0, symName: __Z5eraseNSt3__112basic_stringIcNS_11char_traitsIcEENS_9allocatorIcEEEE, symObjAddr: 0x464, symBinAddr: 0x100004004, symSize: 0x14C }
  - { offsetInCU: 0xB6EC, offset: 0xB6EC, size: 0x8, addend: 0x0, symName: __Z5checkNSt3__112basic_stringIcNS_11char_traitsIcEENS_9allocatorIcEEEE, symObjAddr: 0x5B0, symBinAddr: 0x100004150, symSize: 0x110 }
  - { offsetInCU: 0xB798, offset: 0xB798, size: 0x8, addend: 0x0, symName: __Z5solvev, symObjAddr: 0x6C0, symBinAddr: 0x100004260, symSize: 0x2AC }
  - { offsetInCU: 0xB83C, offset: 0xB83C, size: 0x8, addend: 0x0, symName: __ZNSt3__112basic_stringIcNS_11char_traitsIcEENS_9allocatorIcEEEC1B8ue170006Ev, symObjAddr: 0x96C, symBinAddr: 0x10000450C, symSize: 0x2C }
  - { offsetInCU: 0xB865, offset: 0xB865, size: 0x8, addend: 0x0, symName: _main, symObjAddr: 0xA88, symBinAddr: 0x100004628, symSize: 0xC0 }
  - { offsetInCU: 0xB88E, offset: 0xB88E, size: 0x8, addend: 0x0, symName: __ZNSt3__19basic_iosIcNS_11char_traitsIcEEE3tieB8ue170006EPNS_13basic_ostreamIcS2_EE, symObjAddr: 0xB48, symBinAddr: 0x1000046E8, symSize: 0x2C }
  - { offsetInCU: 0xB8D3, offset: 0xB8D3, size: 0x8, addend: 0x0, symName: __ZNKSt3__111__wrap_iterIPcE4baseB8ue170006Ev, symObjAddr: 0xBBC, symBinAddr: 0x10000475C, symSize: 0x18 }
  - { offsetInCU: 0xB8F8, offset: 0xB8F8, size: 0x8, addend: 0x0, symName: __ZN4NodeC2Ev, symObjAddr: 0xBD4, symBinAddr: 0x100004774, symSize: 0x74 }
  - { offsetInCU: 0xB94C, offset: 0xB94C, size: 0x8, addend: 0x0, symName: __ZNSt3__112basic_stringIcNS_11char_traitsIcEENS_9allocatorIcEEEC2B8ue170006Ev, symObjAddr: 0xC48, symBinAddr: 0x1000047E8, symSize: 0x48 }
  - { offsetInCU: 0xB97A, offset: 0xB97A, size: 0x8, addend: 0x0, symName: __ZNSt3__117__compressed_pairINS_12basic_stringIcNS_11char_traitsIcEENS_9allocatorIcEEE5__repES5_EC1B8ue170006INS_18__default_init_tagESA_EEOT_OT0_, symObjAddr: 0xC90, symBinAddr: 0x100004830, symSize: 0x3C }
  - { offsetInCU: 0xB9D1, offset: 0xB9D1, size: 0x8, addend: 0x0, symName: __ZNSt3__112basic_stringIcNS_11char_traitsIcEENS_9allocatorIcEEE14__default_initB8ue170006Ev, symObjAddr: 0xCD8, symBinAddr: 0x100004878, symSize: 0x40 }
  - { offsetInCU: 0xB9F6, offset: 0xB9F6, size: 0x8, addend: 0x0, symName: __ZNSt3__117__compressed_pairINS_12basic_stringIcNS_11char_traitsIcEENS_9allocatorIcEEE5__repES5_EC2B8ue170006INS_18__default_init_tagESA_EEOT_OT0_, symObjAddr: 0xD18, symBinAddr: 0x1000048B8, symSize: 0x3C }
  - { offsetInCU: 0xBA4D, offset: 0xBA4D, size: 0x8, addend: 0x0, symName: __ZNSt3__122__compressed_pair_elemINS_12basic_stringIcNS_11char_traitsIcEENS_9allocatorIcEEE5__repELi0ELb0EEC2B8ue170006ENS_18__default_init_tagE, symObjAddr: 0xD54, symBinAddr: 0x1000048F4, symSize: 0x14 }
  - { offsetInCU: 0xBA81, offset: 0xBA81, size: 0x8, addend: 0x0, symName: __ZNSt3__122__compressed_pair_elemINS_9allocatorIcEELi1ELb1EEC2B8ue170006ENS_18__default_init_tagE, symObjAddr: 0xD68, symBinAddr: 0x100004908, symSize: 0x2C }
  - { offsetInCU: 0xBAB5, offset: 0xBAB5, size: 0x8, addend: 0x0, symName: __ZNSt3__19allocatorIcEC2B8ue170006Ev, symObjAddr: 0xD94, symBinAddr: 0x100004934, symSize: 0x2C }
  - { offsetInCU: 0xBADE, offset: 0xBADE, size: 0x8, addend: 0x0, symName: __ZNSt3__116__non_trivial_ifILb1ENS_9allocatorIcEEEC2B8ue170006Ev, symObjAddr: 0xDC0, symBinAddr: 0x100004960, symSize: 0x14 }
  - { offsetInCU: 0xBB07, offset: 0xBB07, size: 0x8, addend: 0x0, symName: __ZNSt3__117__compressed_pairINS_12basic_stringIcNS_11char_traitsIcEENS_9allocatorIcEEE5__repES5_E5firstB8ue170006Ev, symObjAddr: 0xDD4, symBinAddr: 0x100004974, symSize: 0x24 }
  - { offsetInCU: 0xBB2C, offset: 0xBB2C, size: 0x8, addend: 0x0, symName: __ZNSt3__122__compressed_pair_elemINS_12basic_stringIcNS_11char_traitsIcEENS_9allocatorIcEEE5__repELi0ELb0EE5__getB8ue170006Ev, symObjAddr: 0xDF8, symBinAddr: 0x100004998, symSize: 0x14 }
  - { offsetInCU: 0xBB51, offset: 0xBB51, size: 0x8, addend: 0x0, symName: __ZNSt3__16vectorI4NodeNS_9allocatorIS1_EEEC2B8ue170006Ev, symObjAddr: 0xE0C, symBinAddr: 0x1000049AC, symSize: 0x4C }
  - { offsetInCU: 0xBB7F, offset: 0xBB7F, size: 0x8, addend: 0x0, symName: __ZNSt3__117__compressed_pairIP4NodeNS_9allocatorIS1_EEEC1B8ue170006IDnNS_18__default_init_tagEEEOT_OT0_, symObjAddr: 0xE58, symBinAddr: 0x1000049F8, symSize: 0x3C }
  - { offsetInCU: 0xBBD6, offset: 0xBBD6, size: 0x8, addend: 0x0, symName: __ZNSt3__117__compressed_pairIP4NodeNS_9allocatorIS1_EEEC2B8ue170006IDnNS_18__default_init_tagEEEOT_OT0_, symObjAddr: 0xE94, symBinAddr: 0x100004A34, symSize: 0x40 }
  - { offsetInCU: 0xBC2D, offset: 0xBC2D, size: 0x8, addend: 0x0, symName: __ZNSt3__122__compressed_pair_elemIP4NodeLi0ELb0EEC2B8ue170006IDnvEEOT_, symObjAddr: 0xED4, symBinAddr: 0x100004A74, symSize: 0x1C }
  - { offsetInCU: 0xBC6E, offset: 0xBC6E, size: 0x8, addend: 0x0, symName: __ZNSt3__122__compressed_pair_elemINS_9allocatorI4NodeEELi1ELb1EEC2B8ue170006ENS_18__default_init_tagE, symObjAddr: 0xEF0, symBinAddr: 0x100004A90, symSize: 0x2C }
  - { offsetInCU: 0xBCA2, offset: 0xBCA2, size: 0x8, addend: 0x0, symName: __ZNSt3__19allocatorI4NodeEC2B8ue170006Ev, symObjAddr: 0xF1C, symBinAddr: 0x100004ABC, symSize: 0x2C }
  - { offsetInCU: 0xBCCB, offset: 0xBCCB, size: 0x8, addend: 0x0, symName: __ZNSt3__116__non_trivial_ifILb1ENS_9allocatorI4NodeEEEC2B8ue170006Ev, symObjAddr: 0xF48, symBinAddr: 0x100004AE8, symSize: 0x14 }
  - { offsetInCU: 0xBCF4, offset: 0xBCF4, size: 0x8, addend: 0x0, symName: __ZNSt3__16vectorI4NodeNS_9allocatorIS1_EEED2B8ue170006Ev, symObjAddr: 0xF5C, symBinAddr: 0x100004AFC, symSize: 0x44 }
  - { offsetInCU: 0xBD1D, offset: 0xBD1D, size: 0x8, addend: 0x0, symName: __ZNSt3__16vectorI4NodeNS_9allocatorIS1_EEE16__destroy_vectorC1B8ue170006ERS4_, symObjAddr: 0xFA0, symBinAddr: 0x100004B40, symSize: 0x34 }
  - { offsetInCU: 0xBD55, offset: 0xBD55, size: 0x8, addend: 0x0, symName: __ZNSt3__16vectorI4NodeNS_9allocatorIS1_EEE16__destroy_vectorclB8ue170006Ev, symObjAddr: 0xFD4, symBinAddr: 0x100004B74, symSize: 0x90 }
  - { offsetInCU: 0xBD7A, offset: 0xBD7A, size: 0x8, addend: 0x0, symName: __ZNSt3__16vectorI4NodeNS_9allocatorIS1_EEE16__destroy_vectorC2B8ue170006ERS4_, symObjAddr: 0x1064, symBinAddr: 0x100004C04, symSize: 0x20 }
  - { offsetInCU: 0xBDB2, offset: 0xBDB2, size: 0x8, addend: 0x0, symName: __ZNSt3__16vectorI4NodeNS_9allocatorIS1_EEE7__clearB8ue170006Ev, symObjAddr: 0x1084, symBinAddr: 0x100004C24, symSize: 0x28 }
  - { offsetInCU: 0xBDD7, offset: 0xBDD7, size: 0x8, addend: 0x0, symName: __ZNKSt3__16vectorI4NodeNS_9allocatorIS1_EEE17__annotate_deleteB8ue170006Ev, symObjAddr: 0x10AC, symBinAddr: 0x100004C4C, symSize: 0xD4 }
  - { offsetInCU: 0xBDFC, offset: 0xBDFC, size: 0x8, addend: 0x0, symName: __ZNSt3__116allocator_traitsINS_9allocatorI4NodeEEE10deallocateB8ue170006ERS3_PS2_m, symObjAddr: 0x1180, symBinAddr: 0x100004D20, symSize: 0x34 }
  - { offsetInCU: 0xBE3E, offset: 0xBE3E, size: 0x8, addend: 0x0, symName: __ZNSt3__16vectorI4NodeNS_9allocatorIS1_EEE7__allocB8ue170006Ev, symObjAddr: 0x11B4, symBinAddr: 0x100004D54, symSize: 0x28 }
  - { offsetInCU: 0xBE63, offset: 0xBE63, size: 0x8, addend: 0x0, symName: __ZNKSt3__16vectorI4NodeNS_9allocatorIS1_EEE8capacityB8ue170006Ev, symObjAddr: 0x11DC, symBinAddr: 0x100004D7C, symSize: 0x40 }
  - { offsetInCU: 0xBE88, offset: 0xBE88, size: 0x8, addend: 0x0, symName: __ZNSt3__16vectorI4NodeNS_9allocatorIS1_EEE22__base_destruct_at_endB8ue170006EPS1_, symObjAddr: 0x121C, symBinAddr: 0x100004DBC, symSize: 0x8C }
  - { offsetInCU: 0xBECB, offset: 0xBECB, size: 0x8, addend: 0x0, symName: __ZNSt3__116allocator_traitsINS_9allocatorI4NodeEEE7destroyB8ue170006IS2_vEEvRS3_PT_, symObjAddr: 0x12A8, symBinAddr: 0x100004E48, symSize: 0x2C }
  - { offsetInCU: 0xBF08, offset: 0xBF08, size: 0x8, addend: 0x0, symName: __ZNSt3__19allocatorI4NodeE7destroyB8ue170006EPS1_, symObjAddr: 0x12E8, symBinAddr: 0x100004E88, symSize: 0x14 }
  - { offsetInCU: 0xBF3B, offset: 0xBF3B, size: 0x8, addend: 0x0, symName: __ZNKSt3__16vectorI4NodeNS_9allocatorIS1_EEE31__annotate_contiguous_containerB8ue170006EPKvS6_S6_S6_, symObjAddr: 0x12FC, symBinAddr: 0x100004E9C, symSize: 0x20 }
  - { offsetInCU: 0xBF8C, offset: 0xBF8C, size: 0x8, addend: 0x0, symName: __ZNKSt3__16vectorI4NodeNS_9allocatorIS1_EEE4dataB8ue170006Ev, symObjAddr: 0x131C, symBinAddr: 0x100004EBC, symSize: 0x28 }
  - { offsetInCU: 0xBFB1, offset: 0xBFB1, size: 0x8, addend: 0x0, symName: __ZNSt3__19allocatorI4NodeE10deallocateB8ue170006EPS1_m, symObjAddr: 0x1344, symBinAddr: 0x100004EE4, symSize: 0x44 }
  - { offsetInCU: 0xBFF2, offset: 0xBFF2, size: 0x8, addend: 0x0, symName: __ZNSt3__117__compressed_pairIP4NodeNS_9allocatorIS1_EEE6secondB8ue170006Ev, symObjAddr: 0x1404, symBinAddr: 0x100004FA4, symSize: 0x24 }
  - { offsetInCU: 0xC017, offset: 0xC017, size: 0x8, addend: 0x0, symName: __ZNSt3__122__compressed_pair_elemINS_9allocatorI4NodeEELi1ELb1EE5__getB8ue170006Ev, symObjAddr: 0x1428, symBinAddr: 0x100004FC8, symSize: 0x14 }
  - { offsetInCU: 0xC03C, offset: 0xC03C, size: 0x8, addend: 0x0, symName: __ZNKSt3__16vectorI4NodeNS_9allocatorIS1_EEE9__end_capB8ue170006Ev, symObjAddr: 0x143C, symBinAddr: 0x100004FDC, symSize: 0x28 }
  - { offsetInCU: 0xC061, offset: 0xC061, size: 0x8, addend: 0x0, symName: __ZNKSt3__117__compressed_pairIP4NodeNS_9allocatorIS1_EEE5firstB8ue170006Ev, symObjAddr: 0x1464, symBinAddr: 0x100005004, symSize: 0x24 }
  - { offsetInCU: 0xC086, offset: 0xC086, size: 0x8, addend: 0x0, symName: __ZNKSt3__122__compressed_pair_elemIP4NodeLi0ELb0EE5__getB8ue170006Ev, symObjAddr: 0x1488, symBinAddr: 0x100005028, symSize: 0x14 }
  - { offsetInCU: 0xC0AB, offset: 0xC0AB, size: 0x8, addend: 0x0, symName: __ZNSt3__112basic_stringIcNS_11char_traitsIcEENS_9allocatorIcEEE15__make_iteratorB8ue170006EPc, symObjAddr: 0x149C, symBinAddr: 0x10000503C, symSize: 0x30 }
  - { offsetInCU: 0xC0DF, offset: 0xC0DF, size: 0x8, addend: 0x0, symName: __ZNSt3__112basic_stringIcNS_11char_traitsIcEENS_9allocatorIcEEE13__get_pointerB8ue170006Ev, symObjAddr: 0x14CC, symBinAddr: 0x10000506C, symSize: 0x54 }
  - { offsetInCU: 0xC104, offset: 0xC104, size: 0x8, addend: 0x0, symName: __ZNSt3__111__wrap_iterIPcEC1B8ue170006ES1_, symObjAddr: 0x1520, symBinAddr: 0x1000050C0, symSize: 0x34 }
  - { offsetInCU: 0xC13B, offset: 0xC13B, size: 0x8, addend: 0x0, symName: __ZNSt3__111__wrap_iterIPcEC2B8ue170006ES1_, symObjAddr: 0x1554, symBinAddr: 0x1000050F4, symSize: 0x20 }
  - { offsetInCU: 0xC172, offset: 0xC172, size: 0x8, addend: 0x0, symName: __ZNKSt3__112basic_stringIcNS_11char_traitsIcEENS_9allocatorIcEEE9__is_longB8ue170006Ev, symObjAddr: 0x1574, symBinAddr: 0x100005114, symSize: 0x38 }
  - { offsetInCU: 0xC197, offset: 0xC197, size: 0x8, addend: 0x0, symName: __ZNSt3__112basic_stringIcNS_11char_traitsIcEENS_9allocatorIcEEE18__get_long_pointerB8ue170006Ev, symObjAddr: 0x15AC, symBinAddr: 0x10000514C, symSize: 0x28 }
  - { offsetInCU: 0xC1BC, offset: 0xC1BC, size: 0x8, addend: 0x0, symName: __ZNSt3__112basic_stringIcNS_11char_traitsIcEENS_9allocatorIcEEE19__get_short_pointerB8ue170006Ev, symObjAddr: 0x15D4, symBinAddr: 0x100005174, symSize: 0x28 }
  - { offsetInCU: 0xC1E1, offset: 0xC1E1, size: 0x8, addend: 0x0, symName: __ZNKSt3__117__compressed_pairINS_12basic_stringIcNS_11char_traitsIcEENS_9allocatorIcEEE5__repES5_E5firstB8ue170006Ev, symObjAddr: 0x15FC, symBinAddr: 0x10000519C, symSize: 0x24 }
  - { offsetInCU: 0xC206, offset: 0xC206, size: 0x8, addend: 0x0, symName: __ZNKSt3__122__compressed_pair_elemINS_12basic_stringIcNS_11char_traitsIcEENS_9allocatorIcEEE5__repELi0ELb0EE5__getB8ue170006Ev, symObjAddr: 0x1620, symBinAddr: 0x1000051C0, symSize: 0x14 }
  - { offsetInCU: 0xC22B, offset: 0xC22B, size: 0x8, addend: 0x0, symName: __ZNSt3__114pointer_traitsIPcE10pointer_toB8ue170006ERc, symObjAddr: 0x1634, symBinAddr: 0x1000051D4, symSize: 0x14 }
  - { offsetInCU: 0xC24E, offset: 0xC24E, size: 0x8, addend: 0x0, symName: __ZNKSt3__112basic_stringIcNS_11char_traitsIcEENS_9allocatorIcEEE4sizeB8ue170006Ev, symObjAddr: 0x1648, symBinAddr: 0x1000051E8, symSize: 0x54 }
  - { offsetInCU: 0xC273, offset: 0xC273, size: 0x8, addend: 0x0, symName: __ZNKSt3__112basic_stringIcNS_11char_traitsIcEENS_9allocatorIcEEE15__get_long_sizeB8ue170006Ev, symObjAddr: 0x169C, symBinAddr: 0x10000523C, symSize: 0x28 }
  - { offsetInCU: 0xC298, offset: 0xC298, size: 0x8, addend: 0x0, symName: __ZNKSt3__112basic_stringIcNS_11char_traitsIcEENS_9allocatorIcEEE16__get_short_sizeB8ue170006Ev, symObjAddr: 0x16C4, symBinAddr: 0x100005264, symSize: 0x34 }
  - { offsetInCU: 0xC2BD, offset: 0xC2BD, size: 0x8, addend: 0x0, symName: __ZNSt3__16vectorI4NodeNS_9allocatorIS1_EEE9__end_capB8ue170006Ev, symObjAddr: 0x16F8, symBinAddr: 0x100005298, symSize: 0x28 }
  - { offsetInCU: 0xC2E7, offset: 0xC2E7, size: 0x8, addend: 0x0, symName: __ZNSt3__16vectorI4NodeNS_9allocatorIS1_EEE22__construct_one_at_endB8ue170006IJS1_EEEvDpOT_, symObjAddr: 0x1720, symBinAddr: 0x1000052C0, symSize: 0x90 }
  - { offsetInCU: 0xC334, offset: 0xC334, size: 0x8, addend: 0x0, symName: __ZNSt3__16vectorI4NodeNS_9allocatorIS1_EEE21__push_back_slow_pathIS1_EEvOT_, symObjAddr: 0x17B0, symBinAddr: 0x100005350, symSize: 0xD8 }
  - { offsetInCU: 0xC391, offset: 0xC391, size: 0x8, addend: 0x0, symName: __ZNSt3__117__compressed_pairIP4NodeNS_9allocatorIS1_EEE5firstB8ue170006Ev, symObjAddr: 0x1888, symBinAddr: 0x100005428, symSize: 0x24 }
  - { offsetInCU: 0xC3B6, offset: 0xC3B6, size: 0x8, addend: 0x0, symName: __ZNSt3__122__compressed_pair_elemIP4NodeLi0ELb0EE5__getB8ue170006Ev, symObjAddr: 0x18AC, symBinAddr: 0x10000544C, symSize: 0x14 }
  - { offsetInCU: 0xC3F4, offset: 0xC3F4, size: 0x8, addend: 0x0, symName: __ZNSt3__16vectorI4NodeNS_9allocatorIS1_EEE21_ConstructTransactionC1B8ue170006ERS4_m, symObjAddr: 0x18C0, symBinAddr: 0x100005460, symSize: 0x3C }
  - { offsetInCU: 0xC43B, offset: 0xC43B, size: 0x8, addend: 0x0, symName: __ZNSt3__116allocator_traitsINS_9allocatorI4NodeEEE9constructB8ue170006IS2_JS2_EvEEvRS3_PT_DpOT0_, symObjAddr: 0x18FC, symBinAddr: 0x10000549C, symSize: 0x34 }
  - { offsetInCU: 0xC492, offset: 0xC492, size: 0x8, addend: 0x0, symName: __ZNSt3__16vectorI4NodeNS_9allocatorIS1_EEE21_ConstructTransactionD1B8ue170006Ev, symObjAddr: 0x1930, symBinAddr: 0x1000054D0, symSize: 0x2C }
  - { offsetInCU: 0xC4BB, offset: 0xC4BB, size: 0x8, addend: 0x0, symName: __ZNSt3__16vectorI4NodeNS_9allocatorIS1_EEE21_ConstructTransactionC2B8ue170006ERS4_m, symObjAddr: 0x195C, symBinAddr: 0x1000054FC, symSize: 0x4C }
  - { offsetInCU: 0xC502, offset: 0xC502, size: 0x8, addend: 0x0, symName: __ZNSt3__19allocatorI4NodeE9constructB8ue170006IS1_JS1_EEEvPT_DpOT0_, symObjAddr: 0x19A8, symBinAddr: 0x100005548, symSize: 0x34 }
  - { offsetInCU: 0xC557, offset: 0xC557, size: 0x8, addend: 0x0, symName: __ZNSt3__16vectorI4NodeNS_9allocatorIS1_EEE21_ConstructTransactionD2B8ue170006Ev, symObjAddr: 0x19DC, symBinAddr: 0x10000557C, symSize: 0x20 }
  - { offsetInCU: 0xC57F, offset: 0xC57F, size: 0x8, addend: 0x0, symName: __ZNKSt3__16vectorI4NodeNS_9allocatorIS1_EEE11__recommendB8ue170006Em, symObjAddr: 0x19FC, symBinAddr: 0x10000559C, symSize: 0xB4 }
  - { offsetInCU: 0xC5D3, offset: 0xC5D3, size: 0x8, addend: 0x0, symName: __ZNSt3__114__split_bufferI4NodeRNS_9allocatorIS1_EEEC1EmmS4_, symObjAddr: 0x1AB0, symBinAddr: 0x100005650, symSize: 0x44 }
  - { offsetInCU: 0xC628, offset: 0xC628, size: 0x8, addend: 0x0, symName: __ZNSt3__114__split_bufferI4NodeRNS_9allocatorIS1_EEED1Ev, symObjAddr: 0x1C04, symBinAddr: 0x1000057A4, symSize: 0x2C }
  - { offsetInCU: 0xC652, offset: 0xC652, size: 0x8, addend: 0x0, symName: __ZNKSt3__16vectorI4NodeNS_9allocatorIS1_EEE8max_sizeEv, symObjAddr: 0x1C30, symBinAddr: 0x1000057D0, symSize: 0x60 }
  - { offsetInCU: 0xC679, offset: 0xC679, size: 0x8, addend: 0x0, symName: __ZNKSt3__16vectorI4NodeNS_9allocatorIS1_EEE20__throw_length_errorB8ue170006Ev, symObjAddr: 0x1C90, symBinAddr: 0x100005830, symSize: 0x1C }
  - { offsetInCU: 0xC6A8, offset: 0xC6A8, size: 0x8, addend: 0x0, symName: __ZNSt3__116allocator_traitsINS_9allocatorI4NodeEEE8max_sizeB8ue170006IS3_vEEmRKS3_, symObjAddr: 0x1D04, symBinAddr: 0x1000058A4, symSize: 0x24 }
  - { offsetInCU: 0xC6D6, offset: 0xC6D6, size: 0x8, addend: 0x0, symName: __ZNKSt3__16vectorI4NodeNS_9allocatorIS1_EEE7__allocB8ue170006Ev, symObjAddr: 0x1D28, symBinAddr: 0x1000058C8, symSize: 0x28 }
  - { offsetInCU: 0xC6FB, offset: 0xC6FB, size: 0x8, addend: 0x0, symName: __ZNSt3__114numeric_limitsIlE3maxB8ue170006Ev, symObjAddr: 0x1D50, symBinAddr: 0x1000058F0, symSize: 0x14 }
  - { offsetInCU: 0xC723, offset: 0xC723, size: 0x8, addend: 0x0, symName: __ZNKSt3__16__lessIvvEclB8ue170006ImmEEbRKT_RKT0_, symObjAddr: 0x1DB8, symBinAddr: 0x100005958, symSize: 0x34 }
  - { offsetInCU: 0xC776, offset: 0xC776, size: 0x8, addend: 0x0, symName: __ZNKSt3__19allocatorI4NodeE8max_sizeB8ue170006Ev, symObjAddr: 0x1DEC, symBinAddr: 0x10000598C, symSize: 0x20 }
  - { offsetInCU: 0xC79B, offset: 0xC79B, size: 0x8, addend: 0x0, symName: __ZNKSt3__117__compressed_pairIP4NodeNS_9allocatorIS1_EEE6secondB8ue170006Ev, symObjAddr: 0x1E0C, symBinAddr: 0x1000059AC, symSize: 0x24 }
  - { offsetInCU: 0xC7C0, offset: 0xC7C0, size: 0x8, addend: 0x0, symName: __ZNKSt3__122__compressed_pair_elemINS_9allocatorI4NodeEELi1ELb1EE5__getB8ue170006Ev, symObjAddr: 0x1E30, symBinAddr: 0x1000059D0, symSize: 0x14 }
  - { offsetInCU: 0xC7E5, offset: 0xC7E5, size: 0x8, addend: 0x0, symName: __ZNSt3__123__libcpp_numeric_limitsIlLb1EE3maxB8ue170006Ev, symObjAddr: 0x1E44, symBinAddr: 0x1000059E4, symSize: 0x8 }
  - { offsetInCU: 0xC7F9, offset: 0xC7F9, size: 0x8, addend: 0x0, symName: __ZNSt12length_errorC1B8ue170006EPKc, symObjAddr: 0x1EB0, symBinAddr: 0x100005A50, symSize: 0x34 }
  - { offsetInCU: 0xC830, offset: 0xC830, size: 0x8, addend: 0x0, symName: __ZNSt12length_errorC2B8ue170006EPKc, symObjAddr: 0x1EE4, symBinAddr: 0x100005A84, symSize: 0x4C }
  - { offsetInCU: 0xC867, offset: 0xC867, size: 0x8, addend: 0x0, symName: __ZNSt3__114__split_bufferI4NodeRNS_9allocatorIS1_EEEC2EmmS4_, symObjAddr: 0x1F84, symBinAddr: 0x100005B24, symSize: 0xE0 }
  - { offsetInCU: 0xC8DA, offset: 0xC8DA, size: 0x8, addend: 0x0, symName: __ZNSt3__117__compressed_pairIP4NodeRNS_9allocatorIS1_EEEC1B8ue170006IDnS5_EEOT_OT0_, symObjAddr: 0x2064, symBinAddr: 0x100005C04, symSize: 0x3C }
  - { offsetInCU: 0xC931, offset: 0xC931, size: 0x8, addend: 0x0, symName: __ZNSt3__114__split_bufferI4NodeRNS_9allocatorIS1_EEE7__allocB8ue170006Ev, symObjAddr: 0x20E0, symBinAddr: 0x100005C80, symSize: 0x28 }
  - { offsetInCU: 0xC956, offset: 0xC956, size: 0x8, addend: 0x0, symName: __ZNSt3__114__split_bufferI4NodeRNS_9allocatorIS1_EEE9__end_capB8ue170006Ev, symObjAddr: 0x2108, symBinAddr: 0x100005CA8, symSize: 0x28 }
  - { offsetInCU: 0xC97B, offset: 0xC97B, size: 0x8, addend: 0x0, symName: __ZNSt3__117__compressed_pairIP4NodeRNS_9allocatorIS1_EEEC2B8ue170006IDnS5_EEOT_OT0_, symObjAddr: 0x2130, symBinAddr: 0x100005CD0, symSize: 0x48 }
  - { offsetInCU: 0xC9D2, offset: 0xC9D2, size: 0x8, addend: 0x0, symName: __ZNSt3__122__compressed_pair_elemIRNS_9allocatorI4NodeEELi1ELb0EEC2B8ue170006IS4_vEEOT_, symObjAddr: 0x2178, symBinAddr: 0x100005D18, symSize: 0x20 }
  - { offsetInCU: 0xCA13, offset: 0xCA13, size: 0x8, addend: 0x0, symName: __ZNSt3__19allocatorI4NodeE8allocateB8ue170006Em, symObjAddr: 0x2198, symBinAddr: 0x100005D38, symSize: 0x5C }
  - { offsetInCU: 0xCA46, offset: 0xCA46, size: 0x8, addend: 0x0, symName: __ZNSt3__117__compressed_pairIP4NodeRNS_9allocatorIS1_EEE6secondB8ue170006Ev, symObjAddr: 0x2274, symBinAddr: 0x100005E14, symSize: 0x28 }
  - { offsetInCU: 0xCA6B, offset: 0xCA6B, size: 0x8, addend: 0x0, symName: __ZNSt3__122__compressed_pair_elemIRNS_9allocatorI4NodeEELi1ELb0EE5__getB8ue170006Ev, symObjAddr: 0x229C, symBinAddr: 0x100005E3C, symSize: 0x18 }
  - { offsetInCU: 0xCA90, offset: 0xCA90, size: 0x8, addend: 0x0, symName: __ZNSt3__117__compressed_pairIP4NodeRNS_9allocatorIS1_EEE5firstB8ue170006Ev, symObjAddr: 0x22B4, symBinAddr: 0x100005E54, symSize: 0x24 }
  - { offsetInCU: 0xCAB5, offset: 0xCAB5, size: 0x8, addend: 0x0, symName: __ZNSt3__116reverse_iteratorIP4NodeEC1B8ue170006ES2_, symObjAddr: 0x2350, symBinAddr: 0x100005EF0, symSize: 0x34 }
  - { offsetInCU: 0xCAEC, offset: 0xCAEC, size: 0x8, addend: 0x0, symName: __ZNKSt3__116reverse_iteratorIP4NodeE4baseB8ue170006Ev, symObjAddr: 0x2384, symBinAddr: 0x100005F24, symSize: 0x18 }
  - { offsetInCU: 0xCB11, offset: 0xCB11, size: 0x8, addend: 0x0, symName: __ZNKSt3__16vectorI4NodeNS_9allocatorIS1_EEE14__annotate_newB8ue170006Em, symObjAddr: 0x23D8, symBinAddr: 0x100005F78, symSize: 0xC8 }
  - { offsetInCU: 0xCB68, offset: 0xCB68, size: 0x8, addend: 0x0, symName: __ZNKSt3__111__move_loopINS_17_ClassicAlgPolicyEEclB8ue170006INS_16reverse_iteratorIP4NodeEES7_S7_EENS_4pairIT_T1_EES9_T0_SA_, symObjAddr: 0x2790, symBinAddr: 0x100006330, symSize: 0x9C }
  - { offsetInCU: 0xCBD2, offset: 0xCBD2, size: 0x8, addend: 0x0, symName: __ZNSt3__18_IterOpsINS_17_ClassicAlgPolicyEE11__iter_moveB8ue170006IRNS_16reverse_iteratorIP4NodeEEEENS_9enable_ifIXsr12is_referenceIDTdeclsr3stdE7declvalIRT_EEEEE5valueEDTclsr3stdE4movedeclsr3stdE7declvalISB_EEEEE4typeEOSA_, symObjAddr: 0x29C0, symBinAddr: 0x100006560, symSize: 0x28 }
  - { offsetInCU: 0xCBFE, offset: 0xCBFE, size: 0x8, addend: 0x0, symName: __ZNKSt3__116reverse_iteratorIP4NodeEdeB8ue170006Ev, symObjAddr: 0x29E8, symBinAddr: 0x100006588, symSize: 0x28 }
  - { offsetInCU: 0xCC31, offset: 0xCC31, size: 0x8, addend: 0x0, symName: __ZNSt3__116reverse_iteratorIP4NodeEppB8ue170006Ev, symObjAddr: 0x2A10, symBinAddr: 0x1000065B0, symSize: 0x20 }
  - { offsetInCU: 0xCC56, offset: 0xCC56, size: 0x8, addend: 0x0, symName: __ZNSt3__18_IterOpsINS_17_ClassicAlgPolicyEE25__validate_iter_referenceB8ue170006IRNS_16reverse_iteratorIP4NodeEEEEvv, symObjAddr: 0x2A30, symBinAddr: 0x1000065D0, symSize: 0x4 }
  - { offsetInCU: 0xCC74, offset: 0xCC74, size: 0x8, addend: 0x0, symName: __ZNSt3__118__unwrap_iter_implINS_16reverse_iteratorIP4NodeEELb0EE8__unwrapB8ue170006ES4_, symObjAddr: 0x2A34, symBinAddr: 0x1000065D4, symSize: 0x24 }
  - { offsetInCU: 0xCC9C, offset: 0xCC9C, size: 0x8, addend: 0x0, symName: __ZNSt3__14pairINS_16reverse_iteratorIP4NodeEES4_EC1B8ue170006IS4_S4_LPv0EEEOT_OT0_, symObjAddr: 0x2A58, symBinAddr: 0x1000065F8, symSize: 0x3C }
  - { offsetInCU: 0xCCF9, offset: 0xCCF9, size: 0x8, addend: 0x0, symName: __ZNSt3__14pairINS_16reverse_iteratorIP4NodeEES4_EC2B8ue170006IS4_S4_LPv0EEEOT_OT0_, symObjAddr: 0x2A94, symBinAddr: 0x100006634, symSize: 0x34 }
  - { offsetInCU: 0xCD56, offset: 0xCD56, size: 0x8, addend: 0x0, symName: __ZNSt3__118__unwrap_iter_implINS_16reverse_iteratorIP4NodeEELb0EE8__rewrapB8ue170006ES4_S4_, symObjAddr: 0x2AC8, symBinAddr: 0x100006668, symSize: 0x2C }
  - { offsetInCU: 0xCD84, offset: 0xCD84, size: 0x8, addend: 0x0, symName: __ZNSt3__116reverse_iteratorIP4NodeEC2B8ue170006ES2_, symObjAddr: 0x2AF4, symBinAddr: 0x100006694, symSize: 0x28 }
  - { offsetInCU: 0xCDBB, offset: 0xCDBB, size: 0x8, addend: 0x0, symName: __ZNSt3__114__split_bufferI4NodeRNS_9allocatorIS1_EEED2Ev, symObjAddr: 0x2B1C, symBinAddr: 0x1000066BC, symSize: 0x8C }
  - { offsetInCU: 0xCDE6, offset: 0xCDE6, size: 0x8, addend: 0x0, symName: __ZNSt3__114__split_bufferI4NodeRNS_9allocatorIS1_EEE5clearB8ue170006Ev, symObjAddr: 0x2BA8, symBinAddr: 0x100006748, symSize: 0x28 }
  - { offsetInCU: 0xCE0B, offset: 0xCE0B, size: 0x8, addend: 0x0, symName: __ZNKSt3__114__split_bufferI4NodeRNS_9allocatorIS1_EEE8capacityB8ue170006Ev, symObjAddr: 0x2BD0, symBinAddr: 0x100006770, symSize: 0x40 }
  - { offsetInCU: 0xCE30, offset: 0xCE30, size: 0x8, addend: 0x0, symName: __ZNSt3__114__split_bufferI4NodeRNS_9allocatorIS1_EEE17__destruct_at_endB8ue170006EPS1_, symObjAddr: 0x2C10, symBinAddr: 0x1000067B0, symSize: 0x2C }
  - { offsetInCU: 0xCE62, offset: 0xCE62, size: 0x8, addend: 0x0, symName: __ZNSt3__114__split_bufferI4NodeRNS_9allocatorIS1_EEE17__destruct_at_endB8ue170006EPS1_NS_17integral_constantIbLb0EEE, symObjAddr: 0x2C3C, symBinAddr: 0x1000067DC, symSize: 0x80 }
  - { offsetInCU: 0xCEA2, offset: 0xCEA2, size: 0x8, addend: 0x0, symName: __ZNKSt3__114__split_bufferI4NodeRNS_9allocatorIS1_EEE9__end_capB8ue170006Ev, symObjAddr: 0x2CBC, symBinAddr: 0x10000685C, symSize: 0x28 }
  - { offsetInCU: 0xCEC7, offset: 0xCEC7, size: 0x8, addend: 0x0, symName: __ZNKSt3__117__compressed_pairIP4NodeRNS_9allocatorIS1_EEE5firstB8ue170006Ev, symObjAddr: 0x2CE4, symBinAddr: 0x100006884, symSize: 0x24 }
  - { offsetInCU: 0xCEEB, offset: 0xCEEB, size: 0x8, addend: 0x0, symName: __ZNKSt3__19basic_iosIcNS_11char_traitsIcEEE5widenB8ue170006Ec, symObjAddr: 0x2F40, symBinAddr: 0x100006AE0, symSize: 0x84 }
  - { offsetInCU: 0xCFC8, offset: 0xCFC8, size: 0x8, addend: 0x0, symName: __ZNKSt3__113basic_istreamIcNS_11char_traitsIcEEE6sentrycvbB8ue170006Ev, symObjAddr: 0x2FC4, symBinAddr: 0x100006B64, symSize: 0x1C }
  - { offsetInCU: 0xCFEC, offset: 0xCFEC, size: 0x8, addend: 0x0, symName: __ZNSt3__112basic_stringIcNS_11char_traitsIcEENS_9allocatorIcEEE5clearB8ue170006Ev, symObjAddr: 0x2FE0, symBinAddr: 0x100006B80, symSize: 0x78 }
  - { offsetInCU: 0xD012, offset: 0xD012, size: 0x8, addend: 0x0, symName: __ZNKSt3__19basic_iosIcNS_11char_traitsIcEEE5rdbufB8ue170006Ev, symObjAddr: 0x3058, symBinAddr: 0x100006BF8, symSize: 0x24 }
  - { offsetInCU: 0xD039, offset: 0xD039, size: 0x8, addend: 0x0, symName: __ZNSt3__115basic_streambufIcNS_11char_traitsIcEEE6sbumpcB8ue170006Ev, symObjAddr: 0x307C, symBinAddr: 0x100006C1C, symSize: 0x78 }
  - { offsetInCU: 0xD05E, offset: 0xD05E, size: 0x8, addend: 0x0, symName: __ZNSt3__111char_traitsIcE11eq_int_typeB8ue170006Eii, symObjAddr: 0x30F4, symBinAddr: 0x100006C94, symSize: 0x28 }
  - { offsetInCU: 0xD091, offset: 0xD091, size: 0x8, addend: 0x0, symName: __ZNSt3__111char_traitsIcE3eofB8ue170006Ev, symObjAddr: 0x311C, symBinAddr: 0x100006CBC, symSize: 0x8 }
  - { offsetInCU: 0xD0A5, offset: 0xD0A5, size: 0x8, addend: 0x0, symName: __ZNSt3__111char_traitsIcE12to_char_typeB8ue170006Ei, symObjAddr: 0x3124, symBinAddr: 0x100006CC4, symSize: 0x18 }
  - { offsetInCU: 0xD0C8, offset: 0xD0C8, size: 0x8, addend: 0x0, symName: __ZNSt3__111char_traitsIcE2eqEcc, symObjAddr: 0x313C, symBinAddr: 0x100006CDC, symSize: 0x28 }
  - { offsetInCU: 0xD0F9, offset: 0xD0F9, size: 0x8, addend: 0x0, symName: __ZNKSt3__112basic_stringIcNS_11char_traitsIcEENS_9allocatorIcEEE8max_sizeB8ue170006Ev, symObjAddr: 0x3164, symBinAddr: 0x100006D04, symSize: 0xAC }
  - { offsetInCU: 0xD14B, offset: 0xD14B, size: 0x8, addend: 0x0, symName: __ZNSt3__18ios_base18__setstate_nothrowB8ue170006Ej, symObjAddr: 0x3210, symBinAddr: 0x100006DB0, symSize: 0x64 }
  - { offsetInCU: 0xD17F, offset: 0xD17F, size: 0x8, addend: 0x0, symName: __ZNKSt3__19basic_iosIcNS_11char_traitsIcEEE10exceptionsB8ue170006Ev, symObjAddr: 0x3274, symBinAddr: 0x100006E14, symSize: 0x24 }
  - { offsetInCU: 0xD1A4, offset: 0xD1A4, size: 0x8, addend: 0x0, symName: __ZNSt3__19basic_iosIcNS_11char_traitsIcEEE8setstateB8ue170006Ej, symObjAddr: 0x3298, symBinAddr: 0x100006E38, symSize: 0x2C }
  - { offsetInCU: 0xD1D8, offset: 0xD1D8, size: 0x8, addend: 0x0, symName: __ZNSt3__111char_traitsIcE6assignB8ue170006ERcRKc, symObjAddr: 0x32C4, symBinAddr: 0x100006E64, symSize: 0x24 }
  - { offsetInCU: 0xD209, offset: 0xD209, size: 0x8, addend: 0x0, symName: __ZNSt3__112basic_stringIcNS_11char_traitsIcEENS_9allocatorIcEEE15__set_long_sizeB8ue170006Em, symObjAddr: 0x32E8, symBinAddr: 0x100006E88, symSize: 0x38 }
  - { offsetInCU: 0xD23D, offset: 0xD23D, size: 0x8, addend: 0x0, symName: __ZNSt3__112basic_stringIcNS_11char_traitsIcEENS_9allocatorIcEEE16__set_short_sizeB8ue170006Em, symObjAddr: 0x3320, symBinAddr: 0x100006EC0, symSize: 0x78 }
  - { offsetInCU: 0xD271, offset: 0xD271, size: 0x8, addend: 0x0, symName: __ZNKSt3__18ios_base5rdbufB8ue170006Ev, symObjAddr: 0x3398, symBinAddr: 0x100006F38, symSize: 0x18 }
  - { offsetInCU: 0xD296, offset: 0xD296, size: 0x8, addend: 0x0, symName: __ZNSt3__111char_traitsIcE11to_int_typeB8ue170006Ec, symObjAddr: 0x33B0, symBinAddr: 0x100006F50, symSize: 0x14 }
  - { offsetInCU: 0xD2C4, offset: 0xD2C4, size: 0x8, addend: 0x0, symName: __ZNSt3__116allocator_traitsINS_9allocatorIcEEE8max_sizeB8ue170006IS2_vEEmRKS2_, symObjAddr: 0x33C4, symBinAddr: 0x100006F64, symSize: 0x24 }
  - { offsetInCU: 0xD2F2, offset: 0xD2F2, size: 0x8, addend: 0x0, symName: __ZNKSt3__112basic_stringIcNS_11char_traitsIcEENS_9allocatorIcEEE7__allocB8ue170006Ev, symObjAddr: 0x33E8, symBinAddr: 0x100006F88, symSize: 0x24 }
  - { offsetInCU: 0xD317, offset: 0xD317, size: 0x8, addend: 0x0, symName: __ZNSt3__114numeric_limitsImE3maxB8ue170006Ev, symObjAddr: 0x340C, symBinAddr: 0x100006FAC, symSize: 0x14 }
  - { offsetInCU: 0xD32B, offset: 0xD32B, size: 0x8, addend: 0x0, symName: __ZNKSt3__19allocatorIcE8max_sizeB8ue170006Ev, symObjAddr: 0x3420, symBinAddr: 0x100006FC0, symSize: 0x14 }
  - { offsetInCU: 0xD350, offset: 0xD350, size: 0x8, addend: 0x0, symName: __ZNKSt3__117__compressed_pairINS_12basic_stringIcNS_11char_traitsIcEENS_9allocatorIcEEE5__repES5_E6secondB8ue170006Ev, symObjAddr: 0x3434, symBinAddr: 0x100006FD4, symSize: 0x24 }
  - { offsetInCU: 0xD375, offset: 0xD375, size: 0x8, addend: 0x0, symName: __ZNKSt3__122__compressed_pair_elemINS_9allocatorIcEELi1ELb1EE5__getB8ue170006Ev, symObjAddr: 0x3458, symBinAddr: 0x100006FF8, symSize: 0x14 }
  - { offsetInCU: 0xD39A, offset: 0xD39A, size: 0x8, addend: 0x0, symName: __ZNSt3__123__libcpp_numeric_limitsImLb1EE3maxB8ue170006Ev, symObjAddr: 0x346C, symBinAddr: 0x10000700C, symSize: 0x8 }
  - { offsetInCU: 0xD3AE, offset: 0xD3AE, size: 0x8, addend: 0x0, symName: __ZNKSt3__18ios_base10exceptionsB8ue170006Ev, symObjAddr: 0x3474, symBinAddr: 0x100007014, symSize: 0x18 }
  - { offsetInCU: 0xD3D4, offset: 0xD3D4, size: 0x8, addend: 0x0, symName: __ZNSt3__18ios_base8setstateB8ue170006Ej, symObjAddr: 0x348C, symBinAddr: 0x10000702C, symSize: 0x34 }
  - { offsetInCU: 0xD441, offset: 0xD441, size: 0x8, addend: 0x0, symName: __ZNKSt3__15ctypeIcE5widenB8ue170006Ec, symObjAddr: 0x34EC, symBinAddr: 0x10000708C, symSize: 0x38 }
  - { offsetInCU: 0xD475, offset: 0xD475, size: 0x8, addend: 0x0, symName: __ZNKSt3__112basic_stringIcNS_11char_traitsIcEENS_9allocatorIcEEE4dataB8ue170006Ev, symObjAddr: 0x3710, symBinAddr: 0x1000072B0, symSize: 0x28 }
  - { offsetInCU: 0xD4B8, offset: 0xD4B8, size: 0x8, addend: 0x0, symName: __ZNKSt3__113basic_ostreamIcNS_11char_traitsIcEEE6sentrycvbB8ue170006Ev, symObjAddr: 0x3738, symBinAddr: 0x1000072D8, symSize: 0x1C }
  - { offsetInCU: 0xD4DD, offset: 0xD4DD, size: 0x8, addend: 0x0, symName: __ZNSt3__119ostreambuf_iteratorIcNS_11char_traitsIcEEEC1B8ue170006ERNS_13basic_ostreamIcS2_EE, symObjAddr: 0x3994, symBinAddr: 0x100007534, symSize: 0x34 }
  - { offsetInCU: 0xD514, offset: 0xD514, size: 0x8, addend: 0x0, symName: __ZNKSt3__18ios_base5flagsB8ue170006Ev, symObjAddr: 0x39C8, symBinAddr: 0x100007568, symSize: 0x18 }
  - { offsetInCU: 0xD53A, offset: 0xD53A, size: 0x8, addend: 0x0, symName: __ZNKSt3__19basic_iosIcNS_11char_traitsIcEEE4fillB8ue170006Ev, symObjAddr: 0x39E0, symBinAddr: 0x100007580, symSize: 0x64 }
  - { offsetInCU: 0xD561, offset: 0xD561, size: 0x8, addend: 0x0, symName: __ZNKSt3__119ostreambuf_iteratorIcNS_11char_traitsIcEEE6failedB8ue170006Ev, symObjAddr: 0x3A44, symBinAddr: 0x1000075E4, symSize: 0x24 }
  - { offsetInCU: 0xD586, offset: 0xD586, size: 0x8, addend: 0x0, symName: __ZNKSt3__18ios_base5widthB8ue170006Ev, symObjAddr: 0x3A68, symBinAddr: 0x100007608, symSize: 0x18 }
  - { offsetInCU: 0xD5AD, offset: 0xD5AD, size: 0x8, addend: 0x0, symName: __ZNSt3__115basic_streambufIcNS_11char_traitsIcEEE5sputnB8ue170006EPKcl, symObjAddr: 0x3A80, symBinAddr: 0x100007620, symSize: 0x3C }
  - { offsetInCU: 0xD5EE, offset: 0xD5EE, size: 0x8, addend: 0x0, symName: __ZNSt3__112basic_stringIcNS_11char_traitsIcEENS_9allocatorIcEEEC1B8ue170006Emc, symObjAddr: 0x3ABC, symBinAddr: 0x10000765C, symSize: 0x3C }
  - { offsetInCU: 0xD635, offset: 0xD635, size: 0x8, addend: 0x0, symName: __ZNSt3__18ios_base5widthB8ue170006El, symObjAddr: 0x3AF8, symBinAddr: 0x100007698, symSize: 0x2C }
  - { offsetInCU: 0xD67A, offset: 0xD67A, size: 0x8, addend: 0x0, symName: __ZNSt3__112basic_stringIcNS_11char_traitsIcEENS_9allocatorIcEEEC2B8ue170006Emc, symObjAddr: 0x3B24, symBinAddr: 0x1000076C4, symSize: 0x4C }
  - { offsetInCU: 0xD6C1, offset: 0xD6C1, size: 0x8, addend: 0x0, symName: __ZNSt3__119ostreambuf_iteratorIcNS_11char_traitsIcEEEC2B8ue170006ERNS_13basic_ostreamIcS2_EE, symObjAddr: 0x3B70, symBinAddr: 0x100007710, symSize: 0x54 }
  - { offsetInCU: 0xD6F8, offset: 0xD6F8, size: 0x8, addend: 0x0, symName: __ZNKSt3__112basic_stringIcNS_11char_traitsIcEENS_9allocatorIcEEE13__get_pointerB8ue170006Ev, symObjAddr: 0x3BD8, symBinAddr: 0x100007778, symSize: 0x54 }
  - { offsetInCU: 0xD71D, offset: 0xD71D, size: 0x8, addend: 0x0, symName: __ZNKSt3__112basic_stringIcNS_11char_traitsIcEENS_9allocatorIcEEE18__get_long_pointerB8ue170006Ev, symObjAddr: 0x3C2C, symBinAddr: 0x1000077CC, symSize: 0x28 }
  - { offsetInCU: 0xD742, offset: 0xD742, size: 0x8, addend: 0x0, symName: __ZNKSt3__112basic_stringIcNS_11char_traitsIcEENS_9allocatorIcEEE19__get_short_pointerB8ue170006Ev, symObjAddr: 0x3C54, symBinAddr: 0x1000077F4, symSize: 0x28 }
  - { offsetInCU: 0xD767, offset: 0xD767, size: 0x8, addend: 0x0, symName: __ZNSt3__114pointer_traitsIPKcE10pointer_toB8ue170006ERS1_, symObjAddr: 0x3C7C, symBinAddr: 0x10000781C, symSize: 0x14 }
  - { offsetInCU: 0xD78A, offset: 0xD78A, size: 0x8, addend: 0x0, symName: __ZNSt3__111char_traitsIcE6lengthB8ue170006EPKc, symObjAddr: 0x3C90, symBinAddr: 0x100007830, symSize: 0x34 }
...
